; Function Attrs: mustprogress nofree norecurse nosync nounwind willreturn memory(read, inaccessiblemem: none) uwtable
define hidden noundef zeroext i1 @_ZN14array_rewriter19is_expandable_storeEP4expr(ptr noundef nonnull readonly align 8 captures(none) dereferenceable(22) %0, ptr noundef readonly captures(none) %1) local_unnamed_addr #7 align 2 {
  %3 = load i32, ptr %0, align 8, !tbaa !103
  %4 = getelementptr inbounds nuw i8, ptr %1, i64 4
  %5 = load i32, ptr %4, align 4
  %6 = and i32 %5, 65535
  %7 = icmp eq i32 %6, 0
  br i1 %7, label %.lr.ph, label %_ZNK17array_recognizers8is_storeEP4expr.exit.thread

.lr.ph:                                           ; preds = %2, %18
  %.012 = phi i32 [ %24, %18 ], [ 0, %2 ]
  %.0811 = phi i32 [ %23, %18 ], [ 0, %2 ]
  %.0910 = phi ptr [ %20, %18 ], [ %1, %2 ]
  %8 = getelementptr inbounds nuw i8, ptr %.0910, i64 16
  %9 = load ptr, ptr %8, align 8, !tbaa !116
  %10 = getelementptr inbounds nuw i8, ptr %9, i64 24
  %11 = load ptr, ptr %10, align 8, !tbaa !109
  %.not.i.i.i.i = icmp eq ptr %11, null
  br i1 %.not.i.i.i.i, label %_ZNK17array_recognizers8is_storeEP4expr.exit.thread, label %_ZNK17array_recognizers8is_storeEP4expr.exit

_ZNK17array_recognizers8is_storeEP4expr.exit:     ; preds = %.lr.ph
  %12 = load i32, ptr %11, align 8, !tbaa !121
  %13 = icmp eq i32 %12, %3
  %14 = getelementptr inbounds nuw i8, ptr %11, i64 4
  %15 = load i32, ptr %14, align 4
  %16 = icmp eq i32 %15, 0
  %17 = select i1 %13, i1 %16, i1 false
  br i1 %17, label %18, label %_ZNK17array_recognizers8is_storeEP4expr.exit.thread

18:                                               ; preds = %_ZNK17array_recognizers8is_storeEP4expr.exit
  %19 = getelementptr inbounds nuw i8, ptr %.0910, i64 32
  %20 = load ptr, ptr %19, align 8, !tbaa !24
  %21 = getelementptr inbounds nuw i8, ptr %20, i64 8
  %22 = load i32, ptr %21, align 4, !tbaa !99
  %23 = add i32 %22, %.0811
  %24 = add i32 %.012, 1
  %25 = getelementptr inbounds nuw i8, ptr %20, i64 4
  %26 = load i32, ptr %25, align 4
  %27 = and i32 %26, 65535
  %28 = icmp eq i32 %27, 0
  br i1 %28, label %.lr.ph, label %_ZNK17array_recognizers8is_storeEP4expr.exit.thread, !llvm.loop !243

_ZNK17array_recognizers8is_storeEP4expr.exit.thread: ; preds = %_ZNK17array_recognizers8is_storeEP4expr.exit, %18, %.lr.ph, %2
  %.08.lcssa = phi i32 [ 0, %2 ], [ %.0811, %.lr.ph ], [ %23, %18 ], [ %.0811, %_ZNK17array_recognizers8is_storeEP4expr.exit ]
  %.0.lcssa = phi i32 [ 0, %2 ], [ %.012, %.lr.ph ], [ %24, %18 ], [ %.012, %_ZNK17array_recognizers8is_storeEP4expr.exit ]
  %29 = icmp ugt i32 %.0.lcssa, 2
  %30 = shl i32 %.0.lcssa, 1
  %31 = icmp ule i32 %.08.lcssa, %30
  %32 = select i1 %29, i1 %31, i1 false
  ret i1 %32
}